target datalayout = "e-m:e-p270:32:32-p271:32:32-p272:64:64-i64:64-i128:128-f80:128-n8:16:32:64-S128"
target triple = "x86_64-pc-linux-gnu"

%"class.std::__cxx11::basic_string" = type { %"struct.std::__cxx11::basic_string<char>::_Alloc_hider", i64, %union.anon }
%"struct.std::__cxx11::basic_string<char>::_Alloc_hider" = type { ptr }
%union.anon = type { i64, [8 x i8] }
%"class.rocksdb::Slice" = type { ptr, i64 }
%"class.rocksdb::InternalKeyComparator" = type { %"class.rocksdb::CompareInterface", %"class.rocksdb::UserComparatorWrapper" }
%"class.rocksdb::CompareInterface" = type { ptr }
%"class.rocksdb::UserComparatorWrapper" = type { ptr }
%"struct.rocksdb::ImmutableMemTableOptions" = type <{ i64, i32, [4 x i8], i64, i8, i8, [6 x i8], i64, ptr, i64, i8, [7 x i8], ptr, ptr, ptr, i32, i8, i8, [2 x i8] }>
%"class.std::vector.21" = type { %"struct.std::_Vector_base.22" }
%"struct.std::_Vector_base.22" = type { %"struct.std::_Vector_base<unsigned long, std::allocator<unsigned long>>::_Vector_impl" }
%"struct.std::_Vector_base<unsigned long, std::allocator<unsigned long>>::_Vector_impl" = type { %"struct.std::_Vector_base<unsigned long, std::allocator<unsigned long>>::_Vector_impl_data" }
%"struct.std::_Vector_base<unsigned long, std::allocator<unsigned long>>::_Vector_impl_data" = type { ptr, ptr, ptr }
%"class.rocksdb::MemTable" = type { %"class.rocksdb::ReadOnlyMemTable", %"struct.rocksdb::MemTable::KeyComparator", %"struct.rocksdb::ImmutableMemTableOptions", i64, %"class.rocksdb::AllocTracker", [8 x i8], %"class.rocksdb::ConcurrentArena", %"class.std::unique_ptr.132", %"class.std::unique_ptr.132", %"struct.std::atomic.130", %"struct.std::atomic", %"struct.std::atomic", %"struct.std::atomic", %"struct.std::atomic", %"struct.std::atomic", %"struct.std::atomic", %"struct.std::atomic", i64, %"struct.std::atomic", %"class.std::vector.140", ptr, %"class.std::unique_ptr.145", %"struct.std::atomic.153", ptr, ptr, %"class.std::unordered_map", %"struct.std::atomic", %"struct.std::atomic", i32, i64, i8, %"class.rocksdb::Slice", %"class.std::unique_ptr.159", %"class.std::unique_ptr.159", %"class.std::mutex", %"class.rocksdb::CoreLocalArray.167", [8 x i8] }
%"class.rocksdb::ReadOnlyMemTable" = type { ptr, i32, i8, i8, i64, %"class.rocksdb::VersionEdit", i64, i64, i64, %"class.std::unique_ptr" }
%"class.rocksdb::VersionEdit" = type { i32, %"class.std::__cxx11::basic_string", %"class.std::__cxx11::basic_string", i64, i64, i64, i32, i64, i64, i8, i8, i8, i8, i8, i8, i8, i8, i8, %"class.std::vector.83", %"class.std::set", %"class.std::vector.91", %"class.std::vector.96", %"class.std::vector.101", %"class.std::vector.106", %"class.rocksdb::WalDeletion", i32, i8, i8, %"class.std::__cxx11::basic_string", i32, i8, i8, %"class.std::__cxx11::basic_string", i8, %"class.rocksdb::autovector" }
%"class.std::vector.83" = type { %"struct.std::_Vector_base.84" }
%"struct.std::_Vector_base.84" = type { %"struct.std::_Vector_base<std::pair<int, rocksdb::InternalKey>, std::allocator<std::pair<int, rocksdb::InternalKey>>>::_Vector_impl" }
%"struct.std::_Vector_base<std::pair<int, rocksdb::InternalKey>, std::allocator<std::pair<int, rocksdb::InternalKey>>>::_Vector_impl" = type { %"struct.std::_Vector_base<std::pair<int, rocksdb::InternalKey>, std::allocator<std::pair<int, rocksdb::InternalKey>>>::_Vector_impl_data" }
%"struct.std::_Vector_base<std::pair<int, rocksdb::InternalKey>, std::allocator<std::pair<int, rocksdb::InternalKey>>>::_Vector_impl_data" = type { ptr, ptr, ptr }
%"class.std::set" = type { %"class.std::_Rb_tree" }
%"class.std::_Rb_tree" = type { %"struct.std::_Rb_tree<std::pair<int, unsigned long>, std::pair<int, unsigned long>, std::_Identity<std::pair<int, unsigned long>>, std::less<std::pair<int, unsigned long>>>::_Rb_tree_impl" }
%"struct.std::_Rb_tree<std::pair<int, unsigned long>, std::pair<int, unsigned long>, std::_Identity<std::pair<int, unsigned long>>, std::less<std::pair<int, unsigned long>>>::_Rb_tree_impl" = type { [8 x i8], %"struct.std::_Rb_tree_header" }
%"struct.std::_Rb_tree_header" = type { %"struct.std::_Rb_tree_node_base", i64 }
%"struct.std::_Rb_tree_node_base" = type { i32, ptr, ptr, ptr }
%"class.std::vector.91" = type { %"struct.std::_Vector_base.92" }
%"struct.std::_Vector_base.92" = type { %"struct.std::_Vector_base<std::pair<int, rocksdb::FileMetaData>, std::allocator<std::pair<int, rocksdb::FileMetaData>>>::_Vector_impl" }
%"struct.std::_Vector_base<std::pair<int, rocksdb::FileMetaData>, std::allocator<std::pair<int, rocksdb::FileMetaData>>>::_Vector_impl" = type { %"struct.std::_Vector_base<std::pair<int, rocksdb::FileMetaData>, std::allocator<std::pair<int, rocksdb::FileMetaData>>>::_Vector_impl_data" }
%"struct.std::_Vector_base<std::pair<int, rocksdb::FileMetaData>, std::allocator<std::pair<int, rocksdb::FileMetaData>>>::_Vector_impl_data" = type { ptr, ptr, ptr }
%"class.std::vector.96" = type { %"struct.std::_Vector_base.97" }
%"struct.std::_Vector_base.97" = type { %"struct.std::_Vector_base<rocksdb::BlobFileAddition, std::allocator<rocksdb::BlobFileAddition>>::_Vector_impl" }
%"struct.std::_Vector_base<rocksdb::BlobFileAddition, std::allocator<rocksdb::BlobFileAddition>>::_Vector_impl" = type { %"struct.std::_Vector_base<rocksdb::BlobFileAddition, std::allocator<rocksdb::BlobFileAddition>>::_Vector_impl_data" }
%"struct.std::_Vector_base<rocksdb::BlobFileAddition, std::allocator<rocksdb::BlobFileAddition>>::_Vector_impl_data" = type { ptr, ptr, ptr }
%"class.std::vector.101" = type { %"struct.std::_Vector_base.102" }
%"struct.std::_Vector_base.102" = type { %"struct.std::_Vector_base<rocksdb::BlobFileGarbage, std::allocator<rocksdb::BlobFileGarbage>>::_Vector_impl" }
%"struct.std::_Vector_base<rocksdb::BlobFileGarbage, std::allocator<rocksdb::BlobFileGarbage>>::_Vector_impl" = type { %"struct.std::_Vector_base<rocksdb::BlobFileGarbage, std::allocator<rocksdb::BlobFileGarbage>>::_Vector_impl_data" }
%"struct.std::_Vector_base<rocksdb::BlobFileGarbage, std::allocator<rocksdb::BlobFileGarbage>>::_Vector_impl_data" = type { ptr, ptr, ptr }
%"class.std::vector.106" = type { %"struct.std::_Vector_base.107" }
%"struct.std::_Vector_base.107" = type { %"struct.std::_Vector_base<rocksdb::WalAddition, std::allocator<rocksdb::WalAddition>>::_Vector_impl" }
%"struct.std::_Vector_base<rocksdb::WalAddition, std::allocator<rocksdb::WalAddition>>::_Vector_impl" = type { %"struct.std::_Vector_base<rocksdb::WalAddition, std::allocator<rocksdb::WalAddition>>::_Vector_impl_data" }
%"struct.std::_Vector_base<rocksdb::WalAddition, std::allocator<rocksdb::WalAddition>>::_Vector_impl_data" = type { ptr, ptr, ptr }
%"class.rocksdb::WalDeletion" = type { i64 }
%"class.rocksdb::autovector" = type { i64, [64 x i8], ptr, %"class.std::vector.21" }
%"class.std::unique_ptr" = type { %"struct.std::__uniq_ptr_data" }
%"struct.std::__uniq_ptr_data" = type { %"class.std::__uniq_ptr_impl" }
%"class.std::__uniq_ptr_impl" = type { %"class.std::tuple" }
%"class.std::tuple" = type { %"struct.std::_Tuple_impl" }
%"struct.std::_Tuple_impl" = type { %"struct.std::_Head_base.112" }
%"struct.std::_Head_base.112" = type { ptr }
%"struct.rocksdb::MemTable::KeyComparator" = type { %"class.rocksdb::MemTableRep::KeyComparator", %"class.rocksdb::InternalKeyComparator" }
%"class.rocksdb::MemTableRep::KeyComparator" = type { ptr }
%"class.rocksdb::AllocTracker" = type <{ ptr, %"struct.std::atomic", i8, i8, [6 x i8] }>
%"class.rocksdb::ConcurrentArena" = type { %"class.rocksdb::Allocator", [56 x i8], i64, %"class.rocksdb::CoreLocalArray", [8 x i8], %"class.rocksdb::Arena", %"class.rocksdb::SpinMutex", %"struct.std::atomic", %"struct.std::atomic", %"struct.std::atomic", [56 x i8], [8 x i8] }
%"class.rocksdb::Allocator" = type { ptr }
%"class.rocksdb::CoreLocalArray" = type <{ %"class.std::unique_ptr.113", i32, [4 x i8] }>
%"class.std::unique_ptr.113" = type { %"struct.std::__uniq_ptr_data.114" }
%"struct.std::__uniq_ptr_data.114" = type { %"class.std::__uniq_ptr_impl.115" }
%"class.std::__uniq_ptr_impl.115" = type { %"class.std::tuple.116" }
%"class.std::tuple.116" = type { %"struct.std::_Tuple_impl.117" }
%"struct.std::_Tuple_impl.117" = type { %"struct.std::_Head_base.120" }
%"struct.std::_Head_base.120" = type { ptr }
%"class.rocksdb::Arena" = type { %"class.rocksdb::Allocator", [8 x i8], [2048 x i8], i64, %"class.std::deque", %"class.std::deque.124", i64, ptr, ptr, i64, i64, i64, ptr }
%"class.std::deque" = type { %"class.std::_Deque_base" }
%"class.std::_Deque_base" = type { %"struct.std::_Deque_base<std::unique_ptr<char[]>, std::allocator<std::unique_ptr<char[]>>>::_Deque_impl" }
%"struct.std::_Deque_base<std::unique_ptr<char[]>, std::allocator<std::unique_ptr<char[]>>>::_Deque_impl" = type { %"struct.std::_Deque_base<std::unique_ptr<char[]>, std::allocator<std::unique_ptr<char[]>>>::_Deque_impl_data" }
%"struct.std::_Deque_base<std::unique_ptr<char[]>, std::allocator<std::unique_ptr<char[]>>>::_Deque_impl_data" = type { ptr, i64, %"struct.std::_Deque_iterator", %"struct.std::_Deque_iterator" }
%"struct.std::_Deque_iterator" = type { ptr, ptr, ptr, ptr }
%"class.std::deque.124" = type { %"class.std::_Deque_base.125" }
%"class.std::_Deque_base.125" = type { %"struct.std::_Deque_base<rocksdb::MemMapping, std::allocator<rocksdb::MemMapping>>::_Deque_impl" }
%"struct.std::_Deque_base<rocksdb::MemMapping, std::allocator<rocksdb::MemMapping>>::_Deque_impl" = type { %"struct.std::_Deque_base<rocksdb::MemMapping, std::allocator<rocksdb::MemMapping>>::_Deque_impl_data" }
%"struct.std::_Deque_base<rocksdb::MemMapping, std::allocator<rocksdb::MemMapping>>::_Deque_impl_data" = type { ptr, i64, %"struct.std::_Deque_iterator.129", %"struct.std::_Deque_iterator.129" }
%"struct.std::_Deque_iterator.129" = type { ptr, ptr, ptr, ptr }
%"class.rocksdb::SpinMutex" = type { %"struct.std::atomic.130" }
%"class.std::unique_ptr.132" = type { %"struct.std::__uniq_ptr_data.133" }
%"struct.std::__uniq_ptr_data.133" = type { %"class.std::__uniq_ptr_impl.134" }
%"class.std::__uniq_ptr_impl.134" = type { %"class.std::tuple.135" }
%"class.std::tuple.135" = type { %"struct.std::_Tuple_impl.136" }
%"struct.std::_Tuple_impl.136" = type { %"struct.std::_Head_base.139" }
%"struct.std::_Head_base.139" = type { ptr }
%"struct.std::atomic.130" = type { %"struct.std::__atomic_base.131" }
%"struct.std::__atomic_base.131" = type { i8 }
%"class.std::vector.140" = type { %"struct.std::_Vector_base.141" }
%"struct.std::_Vector_base.141" = type { %"struct.std::_Vector_base<rocksdb::port::RWMutex, std::allocator<rocksdb::port::RWMutex>>::_Vector_impl" }
%"struct.std::_Vector_base<rocksdb::port::RWMutex, std::allocator<rocksdb::port::RWMutex>>::_Vector_impl" = type { %"struct.std::_Vector_base<rocksdb::port::RWMutex, std::allocator<rocksdb::port::RWMutex>>::_Vector_impl_data" }
%"struct.std::_Vector_base<rocksdb::port::RWMutex, std::allocator<rocksdb::port::RWMutex>>::_Vector_impl_data" = type { ptr, ptr, ptr }
%"class.std::unique_ptr.145" = type { %"struct.std::__uniq_ptr_data.146" }
%"struct.std::__uniq_ptr_data.146" = type { %"class.std::__uniq_ptr_impl.147" }
%"class.std::__uniq_ptr_impl.147" = type { %"class.std::tuple.148" }
%"class.std::tuple.148" = type { %"struct.std::_Tuple_impl.149" }
%"struct.std::_Tuple_impl.149" = type { %"struct.std::_Head_base.152" }
%"struct.std::_Head_base.152" = type { ptr }
%"struct.std::atomic.153" = type { i32 }
%"class.std::unordered_map" = type { %"class.std::_Hashtable" }
%"class.std::_Hashtable" = type { ptr, i64, %"struct.std::__detail::_Hash_node_base", i64, %"struct.std::__detail::_Prime_rehash_policy", ptr }
%"struct.std::__detail::_Hash_node_base" = type { ptr }
%"struct.std::__detail::_Prime_rehash_policy" = type { float, i64 }
%"struct.std::atomic" = type { %"struct.std::__atomic_base" }
%"struct.std::__atomic_base" = type { i64 }
%"class.std::unique_ptr.159" = type { %"struct.std::__uniq_ptr_data.160" }
%"struct.std::__uniq_ptr_data.160" = type { %"class.std::__uniq_ptr_impl.161" }
%"class.std::__uniq_ptr_impl.161" = type { %"class.std::tuple.162" }
%"class.std::tuple.162" = type { %"struct.std::_Tuple_impl.163" }
%"struct.std::_Tuple_impl.163" = type { %"struct.std::_Head_base.166" }
%"struct.std::_Head_base.166" = type { ptr }
%"class.std::mutex" = type { %"class.std::__mutex_base" }
%"class.std::__mutex_base" = type { %union.pthread_mutex_t }
%union.pthread_mutex_t = type { %struct.__pthread_mutex_s }
%struct.__pthread_mutex_s = type { i32, i32, i32, i32, i32, i16, i16, %struct.__pthread_internal_list }
%struct.__pthread_internal_list = type { ptr, ptr }
%"class.rocksdb::CoreLocalArray.167" = type <{ %"class.std::unique_ptr.168", i32, [4 x i8] }>
%"class.std::unique_ptr.168" = type { %"struct.std::__uniq_ptr_data.169" }
%"struct.std::__uniq_ptr_data.169" = type { %"class.std::__uniq_ptr_impl.170" }
%"class.std::__uniq_ptr_impl.170" = type { %"class.std::tuple.171" }
%"class.std::tuple.171" = type { %"struct.std::_Tuple_impl.172" }
%"struct.std::_Tuple_impl.172" = type { %"struct.std::_Head_base.175" }
%"struct.std::_Head_base.175" = type { ptr }

; Function Attrs: mustprogress nounwind uwtable
define linkonce_odr void @_ZN7rocksdb5SliceC2EPKcm(ptr noundef nonnull align 8 dereferenceable(16) %0, ptr noundef %1, i64 noundef %2) unnamed_addr #5 comdat align 2 {
  %4 = alloca ptr, align 8
  %5 = alloca ptr, align 8
  %6 = alloca i64, align 8
  store ptr %0, ptr %4, align 8, !tbaa !13
  store ptr %1, ptr %5, align 8, !tbaa !28
  store i64 %2, ptr %6, align 8, !tbaa !4
  %7 = load ptr, ptr %4, align 8
  %8 = getelementptr inbounds nuw %"class.rocksdb::Slice", ptr %7, i32 0, i32 0
  %9 = load ptr, ptr %5, align 8, !tbaa !28
  store ptr %9, ptr %8, align 8, !tbaa !30
  %10 = getelementptr inbounds nuw %"class.rocksdb::Slice", ptr %7, i32 0, i32 1
  %11 = load i64, ptr %6, align 8, !tbaa !4
  store i64 %11, ptr %10, align 8, !tbaa !32
  ret void
}

; Function Attrs: mustprogress nounwind uwtable
define linkonce_odr noundef i64 @_ZNK7rocksdb5Slice4sizeEv(ptr noundef nonnull align 8 dereferenceable(16) %0) #5 comdat align 2 {
  %2 = alloca ptr, align 8
  store ptr %0, ptr %2, align 8, !tbaa !13
  %3 = load ptr, ptr %2, align 8
  %4 = getelementptr inbounds nuw %"class.rocksdb::Slice", ptr %3, i32 0, i32 1
  %5 = load i64, ptr %4, align 8, !tbaa !32
  ret i64 %5
}

; Function Attrs: mustprogress nounwind uwtable
define linkonce_odr noundef ptr @_ZNK7rocksdb5Slice4dataEv(ptr noundef nonnull align 8 dereferenceable(16) %0) #5 comdat align 2 {
  %2 = alloca ptr, align 8
  store ptr %0, ptr %2, align 8, !tbaa !13
  %3 = load ptr, ptr %2, align 8
  %4 = getelementptr inbounds nuw %"class.rocksdb::Slice", ptr %3, i32 0, i32 0
  %5 = load ptr, ptr %4, align 8, !tbaa !30
  ret ptr %5
}

; Function Attrs: mustprogress nounwind uwtable
define linkonce_odr noundef ptr @_ZNK7rocksdb21UserComparatorWrapper15user_comparatorEv(ptr noundef nonnull align 8 dereferenceable(8) %0) #5 comdat align 2 {
  %2 = alloca ptr, align 8
  store ptr %0, ptr %2, align 8, !tbaa !17
  %3 = load ptr, ptr %2, align 8
  %4 = getelementptr inbounds nuw %"class.rocksdb::UserComparatorWrapper", ptr %3, i32 0, i32 0
  %5 = load ptr, ptr %4, align 8, !tbaa !23
  ret ptr %5
}

; Function Attrs: mustprogress nounwind uwtable
define linkonce_odr noundef zeroext i1 @_ZNK7rocksdb5Slice5emptyEv(ptr noundef nonnull align 8 dereferenceable(16) %0) #5 comdat align 2 {
  %2 = alloca ptr, align 8
  store ptr %0, ptr %2, align 8, !tbaa !13
  %3 = load ptr, ptr %2, align 8
  %4 = getelementptr inbounds nuw %"class.rocksdb::Slice", ptr %3, i32 0, i32 1
  %5 = load i64, ptr %4, align 8, !tbaa !32
  %6 = icmp eq i64 %5, 0
  ret i1 %6
}

; Function Attrs: inlinehint mustprogress uwtable
define linkonce_odr { ptr, i64 } @_ZN7rocksdb27ExtractTimestampFromUserKeyERKNS_5SliceEm(ptr noundef nonnull align 8 dereferenceable(16) %0, i64 noundef %1) #3 comdat {
  %3 = alloca %"class.rocksdb::Slice", align 8
  %4 = alloca ptr, align 8
  %5 = alloca i64, align 8
  store ptr %0, ptr %4, align 8, !tbaa !13
  store i64 %1, ptr %5, align 8, !tbaa !4
  %6 = load ptr, ptr %4, align 8, !tbaa !13
  %7 = call noundef ptr @_ZNK7rocksdb5Slice4dataEv(ptr noundef nonnull align 8 dereferenceable(16) %6)
  %8 = load ptr, ptr %4, align 8, !tbaa !13
  %9 = call noundef i64 @_ZNK7rocksdb5Slice4sizeEv(ptr noundef nonnull align 8 dereferenceable(16) %8)
  %10 = getelementptr inbounds nuw i8, ptr %7, i64 %9
  %11 = load i64, ptr %5, align 8, !tbaa !4
  %12 = sub i64 0, %11
  %13 = getelementptr inbounds i8, ptr %10, i64 %12
  %14 = load i64, ptr %5, align 8, !tbaa !4
  call void @_ZN7rocksdb5SliceC2EPKcm(ptr noundef nonnull align 8 dereferenceable(16) %3, ptr noundef %13, i64 noundef %14)
  %15 = load { ptr, i64 }, ptr %3, align 8
  ret { ptr, i64 } %15
}

; Function Attrs: mustprogress uwtable
define linkonce_odr noundef ptr @_ZNK7rocksdb21InternalKeyComparator15user_comparatorEv(ptr noundef nonnull align 8 dereferenceable(16) %0) #4 comdat align 2 {
  %2 = alloca ptr, align 8
  store ptr %0, ptr %2, align 8, !tbaa !10
  %3 = load ptr, ptr %2, align 8
  %4 = getelementptr inbounds nuw %"class.rocksdb::InternalKeyComparator", ptr %3, i32 0, i32 1
  %5 = call noundef ptr @_ZNK7rocksdb21UserComparatorWrapper15user_comparatorEv(ptr noundef nonnull align 8 dereferenceable(8) %4)
  ret ptr %5
}

; Function Attrs: mustprogress nounwind uwtable
define linkonce_odr noundef nonnull align 8 dereferenceable(16) ptr @_ZNK7rocksdb8MemTable24GetInternalKeyComparatorEv(ptr noundef nonnull align 16 dereferenceable(3552) %0) unnamed_addr #5 comdat align 2 {
  %2 = alloca ptr, align 8
  store ptr %0, ptr %2, align 8, !tbaa !216
  %3 = load ptr, ptr %2, align 8
  %4 = getelementptr inbounds nuw %"class.rocksdb::MemTable", ptr %3, i32 0, i32 1
  %5 = getelementptr inbounds nuw %"struct.rocksdb::MemTable::KeyComparator", ptr %4, i32 0, i32 1
  ret ptr %5
}

; Function Attrs: mustprogress uwtable
define void @_ZN7rocksdb8MemTable20MaybeUpdateNewestUDTERKNS_5SliceE(ptr noundef nonnull align 16 dereferenceable(3552) %0, ptr noundef nonnull align 8 dereferenceable(16) %1) #4 align 2 {
  %3 = alloca ptr, align 8
  %4 = alloca ptr, align 8
  %5 = alloca ptr, align 8
  %6 = alloca %"class.rocksdb::Slice", align 8
  store ptr %0, ptr %3, align 8, !tbaa !216
  store ptr %1, ptr %4, align 8, !tbaa !13
  %7 = load ptr, ptr %3, align 8
  %8 = getelementptr inbounds nuw %"class.rocksdb::MemTable", ptr %7, i32 0, i32 29
  %9 = load i64, ptr %8, align 16, !tbaa !363
  %10 = icmp eq i64 %9, 0
  br i1 %10, label %15, label %11

11:                                               ; preds = %2
  %12 = getelementptr inbounds nuw %"class.rocksdb::MemTable", ptr %7, i32 0, i32 30
  %13 = load i8, ptr %12, align 8, !tbaa !365, !range !121, !noundef !122
  %14 = trunc i8 %13 to i1
  br i1 %14, label %15, label %16

15:                                               ; preds = %11, %2
  br label %40

16:                                               ; preds = %11
  call void @llvm.lifetime.start.p0(i64 8, ptr %5) #6
  %17 = call noundef nonnull align 8 dereferenceable(16) ptr @_ZNK7rocksdb8MemTable24GetInternalKeyComparatorEv(ptr noundef nonnull align 16 dereferenceable(3552) %7)
  %18 = call noundef ptr @_ZNK7rocksdb21InternalKeyComparator15user_comparatorEv(ptr noundef nonnull align 8 dereferenceable(16) %17)
  store ptr %18, ptr %5, align 8, !tbaa !362
  call void @llvm.lifetime.start.p0(i64 16, ptr %6) #6
  %19 = load ptr, ptr %4, align 8, !tbaa !13
  %20 = getelementptr inbounds nuw %"class.rocksdb::MemTable", ptr %7, i32 0, i32 29
  %21 = load i64, ptr %20, align 16, !tbaa !363
  %22 = call { ptr, i64 } @_ZN7rocksdb27ExtractTimestampFromUserKeyERKNS_5SliceEm(ptr noundef nonnull align 8 dereferenceable(16) %19, i64 noundef %21)
  %23 = getelementptr inbounds nuw { ptr, i64 }, ptr %6, i32 0, i32 0
  %24 = extractvalue { ptr, i64 } %22, 0
  store ptr %24, ptr %23, align 8
  %25 = getelementptr inbounds nuw { ptr, i64 }, ptr %6, i32 0, i32 1
  %26 = extractvalue { ptr, i64 } %22, 1
  store i64 %26, ptr %25, align 8
  %27 = getelementptr inbounds nuw %"class.rocksdb::MemTable", ptr %7, i32 0, i32 31
  %28 = call noundef zeroext i1 @_ZNK7rocksdb5Slice5emptyEv(ptr noundef nonnull align 8 dereferenceable(16) %27)
  br i1 %28, label %37, label %29

29:                                               ; preds = %16
  %30 = load ptr, ptr %5, align 8, !tbaa !362
  %31 = getelementptr inbounds nuw %"class.rocksdb::MemTable", ptr %7, i32 0, i32 31
  %32 = load ptr, ptr %30, align 8, !tbaa !26
  %33 = getelementptr inbounds ptr, ptr %32, i64 28
  %34 = load ptr, ptr %33, align 8
  %35 = call noundef i32 %34(ptr noundef nonnull align 8 dereferenceable(48) %30, ptr noundef nonnull align 8 dereferenceable(16) %6, ptr noundef nonnull align 8 dereferenceable(16) %31)
  %36 = icmp sgt i32 %35, 0
  br i1 %36, label %37, label %39

37:                                               ; preds = %29, %16
  %38 = getelementptr inbounds nuw %"class.rocksdb::MemTable", ptr %7, i32 0, i32 31
  call void @llvm.memcpy.p0.p0.i64(ptr align 16 %38, ptr align 8 %6, i64 16, i1 false), !tbaa.struct !602
  br label %39

39:                                               ; preds = %37, %29
  call void @llvm.lifetime.end.p0(i64 16, ptr %6) #6
  call void @llvm.lifetime.end.p0(i64 8, ptr %5) #6
  br label %40

40:                                               ; preds = %39, %15
  ret void
}