; Function Attrs: mustprogress uwtable
define void @_ZN7rocksdb8MemTable20MaybeUpdateNewestUDTERKNS_5SliceE(ptr noundef nonnull align 16 dereferenceable(3552) %0, ptr noundef nonnull readonly align 8 captures(none) dereferenceable(16) %1) local_unnamed_addr #4 align 2 {
  %3 = alloca %"class.rocksdb::Slice", align 8
  %4 = getelementptr inbounds nuw i8, ptr %0, i64 3440
  %5 = load i64, ptr %4, align 16, !tbaa !382
  %6 = icmp eq i64 %5, 0
  br i1 %6, label %33, label %7

7:                                                ; preds = %2
  %8 = getelementptr inbounds nuw i8, ptr %0, i64 3448
  %9 = load i8, ptr %8, align 8, !tbaa !384, !range !82, !noundef !83
  %10 = trunc nuw i8 %9 to i1
  br i1 %10, label %33, label %11

11:                                               ; preds = %7
  %12 = getelementptr inbounds nuw i8, ptr %0, i64 576
  %13 = load ptr, ptr %12, align 16, !tbaa !16
  call void @llvm.lifetime.start.p0(i64 16, ptr nonnull %3) #35
  %14 = load ptr, ptr %1, align 8, !tbaa !4
  %15 = getelementptr inbounds nuw i8, ptr %1, i64 8
  %16 = load i64, ptr %15, align 8, !tbaa !11
  %17 = getelementptr inbounds nuw i8, ptr %14, i64 %16
  %18 = sub i64 0, %5
  %19 = getelementptr inbounds i8, ptr %17, i64 %18
  store ptr %19, ptr %3, align 8
  %20 = getelementptr inbounds nuw i8, ptr %3, i64 8
  store i64 %5, ptr %20, align 8
  %21 = getelementptr inbounds nuw i8, ptr %0, i64 3456
  %22 = getelementptr inbounds nuw i8, ptr %0, i64 3464
  %23 = load i64, ptr %22, align 8, !tbaa !11
  %24 = icmp eq i64 %23, 0
  br i1 %24, label %31, label %25

25:                                               ; preds = %11
  %26 = load ptr, ptr %13, align 8, !tbaa !19
  %27 = getelementptr inbounds nuw i8, ptr %26, i64 224
  %28 = load ptr, ptr %27, align 8
  %29 = call noundef i32 %28(ptr noundef nonnull align 8 dereferenceable(48) %13, ptr noundef nonnull align 8 dereferenceable(16) %3, ptr noundef nonnull align 8 dereferenceable(16) %21)
  %30 = icmp sgt i32 %29, 0
  br i1 %30, label %31, label %32

31:                                               ; preds = %25, %11
  call void @llvm.memcpy.p0.p0.i64(ptr noundef nonnull align 16 dereferenceable(16) %21, ptr noundef nonnull align 8 dereferenceable(16) %3, i64 16, i1 false), !tbaa.struct !554
  br label %32

32:                                               ; preds = %31, %25
  call void @llvm.lifetime.end.p0(i64 16, ptr nonnull %3) #35
  br label %33

33:                                               ; preds = %2, %7, %32
  ret void
}